
Atmega328p_Peripherals.elf:     file format elf32-avr

Sections:
Idx Name          Size      VMA       LMA       File off  Algn
  0 .data         00000000  00800100  00800100  000007da  2**0
                  CONTENTS, ALLOC, LOAD, DATA
  1 .text         00000766  00000000  00000000  00000074  2**1
                  CONTENTS, ALLOC, LOAD, READONLY, CODE
  2 .bss          0000002a  00800100  00800100  000007da  2**0
                  ALLOC
  3 .comment      00000030  00000000  00000000  000007da  2**0
                  CONTENTS, READONLY
  4 .note.gnu.avr.deviceinfo 00000040  00000000  00000000  0000080c  2**2
                  CONTENTS, READONLY
  5 .debug_aranges 00000438  00000000  00000000  0000084c  2**0
                  CONTENTS, READONLY, DEBUGGING
  6 .debug_info   000025ca  00000000  00000000  00000c84  2**0
                  CONTENTS, READONLY, DEBUGGING
  7 .debug_abbrev 00000dfc  00000000  00000000  0000324e  2**0
                  CONTENTS, READONLY, DEBUGGING
  8 .debug_line   00001b95  00000000  00000000  0000404a  2**0
                  CONTENTS, READONLY, DEBUGGING
  9 .debug_frame  00000edc  00000000  00000000  00005be0  2**2
                  CONTENTS, READONLY, DEBUGGING
 10 .debug_str    000016be  00000000  00000000  00006abc  2**0
                  CONTENTS, READONLY, DEBUGGING
 11 .debug_loc    00003072  00000000  00000000  0000817a  2**0
                  CONTENTS, READONLY, DEBUGGING
 12 .debug_ranges 000003e0  00000000  00000000  0000b1ec  2**0
                  CONTENTS, READONLY, DEBUGGING

Disassembly of section .text:

00000000 <__vectors>:
   0:	0c 94 34 00 	jmp	0x68	; 0x68 <__ctors_end>
   4:	0c 94 7d 00 	jmp	0xfa	; 0xfa <__vector_1>
   8:	0c 94 a6 00 	jmp	0x14c	; 0x14c <__vector_2>
   c:	0c 94 cf 00 	jmp	0x19e	; 0x19e <__vector_3>
  10:	0c 94 f8 00 	jmp	0x1f0	; 0x1f0 <__vector_4>
  14:	0c 94 21 01 	jmp	0x242	; 0x242 <__vector_5>
  18:	0c 94 51 00 	jmp	0xa2	; 0xa2 <__bad_interrupt>
  1c:	0c 94 e4 02 	jmp	0x5c8	; 0x5c8 <__vector_7>
  20:	0c 94 0d 03 	jmp	0x61a	; 0x61a <__vector_8>
  24:	0c 94 bb 02 	jmp	0x576	; 0x576 <__vector_9>
  28:	0c 94 92 02 	jmp	0x524	; 0x524 <__vector_10>
  2c:	0c 94 40 02 	jmp	0x480	; 0x480 <__vector_11>
  30:	0c 94 69 02 	jmp	0x4d2	; 0x4d2 <__vector_12>
  34:	0c 94 17 02 	jmp	0x42e	; 0x42e <__vector_13>
  38:	0c 94 c5 01 	jmp	0x38a	; 0x38a <__vector_14>
  3c:	0c 94 ee 01 	jmp	0x3dc	; 0x3dc <__vector_15>
  40:	0c 94 9c 01 	jmp	0x338	; 0x338 <__vector_16>
  44:	0c 94 73 01 	jmp	0x2e6	; 0x2e6 <__vector_17>
  48:	0c 94 36 03 	jmp	0x66c	; 0x66c <__vector_18>
  4c:	0c 94 88 03 	jmp	0x710	; 0x710 <__vector_19>
  50:	0c 94 5f 03 	jmp	0x6be	; 0x6be <__vector_20>
  54:	0c 94 54 00 	jmp	0xa8	; 0xa8 <__vector_21>
  58:	0c 94 51 00 	jmp	0xa2	; 0xa2 <__bad_interrupt>
  5c:	0c 94 51 00 	jmp	0xa2	; 0xa2 <__bad_interrupt>
  60:	0c 94 4a 01 	jmp	0x294	; 0x294 <__vector_24>
  64:	0c 94 51 00 	jmp	0xa2	; 0xa2 <__bad_interrupt>

00000068 <__ctors_end>:
  68:	11 24       	eor	r1, r1
  6a:	1f be       	out	0x3f, r1	; 63
  6c:	cf ef       	ldi	r28, 0xFF	; 255
  6e:	d8 e0       	ldi	r29, 0x08	; 8
  70:	de bf       	out	0x3e, r29	; 62
  72:	cd bf       	out	0x3d, r28	; 61

00000074 <__do_copy_data>:
  74:	11 e0       	ldi	r17, 0x01	; 1
  76:	a0 e0       	ldi	r26, 0x00	; 0
  78:	b1 e0       	ldi	r27, 0x01	; 1
  7a:	e6 e6       	ldi	r30, 0x66	; 102
  7c:	f7 e0       	ldi	r31, 0x07	; 7
  7e:	02 c0       	rjmp	.+4      	; 0x84 <__do_copy_data+0x10>
  80:	05 90       	lpm	r0, Z+
  82:	0d 92       	st	X+, r0
  84:	a0 30       	cpi	r26, 0x00	; 0
  86:	b1 07       	cpc	r27, r17
  88:	d9 f7       	brne	.-10     	; 0x80 <__do_copy_data+0xc>

0000008a <__do_clear_bss>:
  8a:	21 e0       	ldi	r18, 0x01	; 1
  8c:	a0 e0       	ldi	r26, 0x00	; 0
  8e:	b1 e0       	ldi	r27, 0x01	; 1
  90:	01 c0       	rjmp	.+2      	; 0x94 <.do_clear_bss_start>

00000092 <.do_clear_bss_loop>:
  92:	1d 92       	st	X+, r1

00000094 <.do_clear_bss_start>:
  94:	aa 32       	cpi	r26, 0x2A	; 42
  96:	b2 07       	cpc	r27, r18
  98:	e1 f7       	brne	.-8      	; 0x92 <.do_clear_bss_loop>
  9a:	0e 94 53 00 	call	0xa6	; 0xa6 <main>
  9e:	0c 94 b1 03 	jmp	0x762	; 0x762 <_exit>

000000a2 <__bad_interrupt>:
  a2:	0c 94 00 00 	jmp	0	; 0x0 <__vectors>

000000a6 <main>:

#include "tests.h"


int main(void)
{
  a6:	ff cf       	rjmp	.-2      	; 0xa6 <main>

000000a8 <__vector_21>:
{
    adcInterruptFunction = 0;
}

ISR(ADC_vect)
{
  a8:	1f 92       	push	r1
  aa:	0f 92       	push	r0
  ac:	0f b6       	in	r0, 0x3f	; 63
  ae:	0f 92       	push	r0
  b0:	11 24       	eor	r1, r1
  b2:	2f 93       	push	r18
  b4:	3f 93       	push	r19
  b6:	4f 93       	push	r20
  b8:	5f 93       	push	r21
  ba:	6f 93       	push	r22
  bc:	7f 93       	push	r23
  be:	8f 93       	push	r24
  c0:	9f 93       	push	r25
  c2:	af 93       	push	r26
  c4:	bf 93       	push	r27
  c6:	ef 93       	push	r30
  c8:	ff 93       	push	r31
    if(adcInterruptFunction != 0)
  ca:	e0 91 00 01 	lds	r30, 0x0100	; 0x800100 <__DATA_REGION_ORIGIN__>
  ce:	f0 91 01 01 	lds	r31, 0x0101	; 0x800101 <__DATA_REGION_ORIGIN__+0x1>
  d2:	30 97       	sbiw	r30, 0x00	; 0
  d4:	09 f0       	breq	.+2      	; 0xd8 <__vector_21+0x30>
        adcInterruptFunction();
  d6:	09 95       	icall
}
  d8:	ff 91       	pop	r31
  da:	ef 91       	pop	r30
  dc:	bf 91       	pop	r27
  de:	af 91       	pop	r26
  e0:	9f 91       	pop	r25
  e2:	8f 91       	pop	r24
  e4:	7f 91       	pop	r23
  e6:	6f 91       	pop	r22
  e8:	5f 91       	pop	r21
  ea:	4f 91       	pop	r20
  ec:	3f 91       	pop	r19
  ee:	2f 91       	pop	r18
  f0:	0f 90       	pop	r0
  f2:	0f be       	out	0x3f, r0	; 63
  f4:	0f 90       	pop	r0
  f6:	1f 90       	pop	r1
  f8:	18 95       	reti

000000fa <__vector_1>:
{
    pcint2Function = 0;
}

ISR(INT0_vect) 
{
  fa:	1f 92       	push	r1
  fc:	0f 92       	push	r0
  fe:	0f b6       	in	r0, 0x3f	; 63
 100:	0f 92       	push	r0
 102:	11 24       	eor	r1, r1
 104:	2f 93       	push	r18
 106:	3f 93       	push	r19
 108:	4f 93       	push	r20
 10a:	5f 93       	push	r21
 10c:	6f 93       	push	r22
 10e:	7f 93       	push	r23
 110:	8f 93       	push	r24
 112:	9f 93       	push	r25
 114:	af 93       	push	r26
 116:	bf 93       	push	r27
 118:	ef 93       	push	r30
 11a:	ff 93       	push	r31
	if(int0Function != 0)
 11c:	e0 91 0a 01 	lds	r30, 0x010A	; 0x80010a <int0Function>
 120:	f0 91 0b 01 	lds	r31, 0x010B	; 0x80010b <int0Function+0x1>
 124:	30 97       	sbiw	r30, 0x00	; 0
 126:	09 f0       	breq	.+2      	; 0x12a <__vector_1+0x30>
        int0Function();
 128:	09 95       	icall
}
 12a:	ff 91       	pop	r31
 12c:	ef 91       	pop	r30
 12e:	bf 91       	pop	r27
 130:	af 91       	pop	r26
 132:	9f 91       	pop	r25
 134:	8f 91       	pop	r24
 136:	7f 91       	pop	r23
 138:	6f 91       	pop	r22
 13a:	5f 91       	pop	r21
 13c:	4f 91       	pop	r20
 13e:	3f 91       	pop	r19
 140:	2f 91       	pop	r18
 142:	0f 90       	pop	r0
 144:	0f be       	out	0x3f, r0	; 63
 146:	0f 90       	pop	r0
 148:	1f 90       	pop	r1
 14a:	18 95       	reti

0000014c <__vector_2>:

ISR(INT1_vect) 
{
 14c:	1f 92       	push	r1
 14e:	0f 92       	push	r0
 150:	0f b6       	in	r0, 0x3f	; 63
 152:	0f 92       	push	r0
 154:	11 24       	eor	r1, r1
 156:	2f 93       	push	r18
 158:	3f 93       	push	r19
 15a:	4f 93       	push	r20
 15c:	5f 93       	push	r21
 15e:	6f 93       	push	r22
 160:	7f 93       	push	r23
 162:	8f 93       	push	r24
 164:	9f 93       	push	r25
 166:	af 93       	push	r26
 168:	bf 93       	push	r27
 16a:	ef 93       	push	r30
 16c:	ff 93       	push	r31
	if(int1Function != 0)
 16e:	e0 91 08 01 	lds	r30, 0x0108	; 0x800108 <int1Function>
 172:	f0 91 09 01 	lds	r31, 0x0109	; 0x800109 <int1Function+0x1>
 176:	30 97       	sbiw	r30, 0x00	; 0
 178:	09 f0       	breq	.+2      	; 0x17c <__vector_2+0x30>
        int1Function();
 17a:	09 95       	icall
}
 17c:	ff 91       	pop	r31
 17e:	ef 91       	pop	r30
 180:	bf 91       	pop	r27
 182:	af 91       	pop	r26
 184:	9f 91       	pop	r25
 186:	8f 91       	pop	r24
 188:	7f 91       	pop	r23
 18a:	6f 91       	pop	r22
 18c:	5f 91       	pop	r21
 18e:	4f 91       	pop	r20
 190:	3f 91       	pop	r19
 192:	2f 91       	pop	r18
 194:	0f 90       	pop	r0
 196:	0f be       	out	0x3f, r0	; 63
 198:	0f 90       	pop	r0
 19a:	1f 90       	pop	r1
 19c:	18 95       	reti

0000019e <__vector_3>:

ISR(PCINT0_vect)
{
 19e:	1f 92       	push	r1
 1a0:	0f 92       	push	r0
 1a2:	0f b6       	in	r0, 0x3f	; 63
 1a4:	0f 92       	push	r0
 1a6:	11 24       	eor	r1, r1
 1a8:	2f 93       	push	r18
 1aa:	3f 93       	push	r19
 1ac:	4f 93       	push	r20
 1ae:	5f 93       	push	r21
 1b0:	6f 93       	push	r22
 1b2:	7f 93       	push	r23
 1b4:	8f 93       	push	r24
 1b6:	9f 93       	push	r25
 1b8:	af 93       	push	r26
 1ba:	bf 93       	push	r27
 1bc:	ef 93       	push	r30
 1be:	ff 93       	push	r31
	if(pcint0Function != 0)
 1c0:	e0 91 06 01 	lds	r30, 0x0106	; 0x800106 <pcint0Function>
 1c4:	f0 91 07 01 	lds	r31, 0x0107	; 0x800107 <pcint0Function+0x1>
 1c8:	30 97       	sbiw	r30, 0x00	; 0
 1ca:	09 f0       	breq	.+2      	; 0x1ce <__vector_3+0x30>
        pcint0Function();
 1cc:	09 95       	icall
}
 1ce:	ff 91       	pop	r31
 1d0:	ef 91       	pop	r30
 1d2:	bf 91       	pop	r27
 1d4:	af 91       	pop	r26
 1d6:	9f 91       	pop	r25
 1d8:	8f 91       	pop	r24
 1da:	7f 91       	pop	r23
 1dc:	6f 91       	pop	r22
 1de:	5f 91       	pop	r21
 1e0:	4f 91       	pop	r20
 1e2:	3f 91       	pop	r19
 1e4:	2f 91       	pop	r18
 1e6:	0f 90       	pop	r0
 1e8:	0f be       	out	0x3f, r0	; 63
 1ea:	0f 90       	pop	r0
 1ec:	1f 90       	pop	r1
 1ee:	18 95       	reti

000001f0 <__vector_4>:

ISR(PCINT1_vect)
{
 1f0:	1f 92       	push	r1
 1f2:	0f 92       	push	r0
 1f4:	0f b6       	in	r0, 0x3f	; 63
 1f6:	0f 92       	push	r0
 1f8:	11 24       	eor	r1, r1
 1fa:	2f 93       	push	r18
 1fc:	3f 93       	push	r19
 1fe:	4f 93       	push	r20
 200:	5f 93       	push	r21
 202:	6f 93       	push	r22
 204:	7f 93       	push	r23
 206:	8f 93       	push	r24
 208:	9f 93       	push	r25
 20a:	af 93       	push	r26
 20c:	bf 93       	push	r27
 20e:	ef 93       	push	r30
 210:	ff 93       	push	r31
	if(pcint1Function != 0)
 212:	e0 91 04 01 	lds	r30, 0x0104	; 0x800104 <pcint1Function>
 216:	f0 91 05 01 	lds	r31, 0x0105	; 0x800105 <pcint1Function+0x1>
 21a:	30 97       	sbiw	r30, 0x00	; 0
 21c:	09 f0       	breq	.+2      	; 0x220 <__vector_4+0x30>
        pcint1Function();
 21e:	09 95       	icall
}
 220:	ff 91       	pop	r31
 222:	ef 91       	pop	r30
 224:	bf 91       	pop	r27
 226:	af 91       	pop	r26
 228:	9f 91       	pop	r25
 22a:	8f 91       	pop	r24
 22c:	7f 91       	pop	r23
 22e:	6f 91       	pop	r22
 230:	5f 91       	pop	r21
 232:	4f 91       	pop	r20
 234:	3f 91       	pop	r19
 236:	2f 91       	pop	r18
 238:	0f 90       	pop	r0
 23a:	0f be       	out	0x3f, r0	; 63
 23c:	0f 90       	pop	r0
 23e:	1f 90       	pop	r1
 240:	18 95       	reti

00000242 <__vector_5>:

ISR(PCINT2_vect)
{
 242:	1f 92       	push	r1
 244:	0f 92       	push	r0
 246:	0f b6       	in	r0, 0x3f	; 63
 248:	0f 92       	push	r0
 24a:	11 24       	eor	r1, r1
 24c:	2f 93       	push	r18
 24e:	3f 93       	push	r19
 250:	4f 93       	push	r20
 252:	5f 93       	push	r21
 254:	6f 93       	push	r22
 256:	7f 93       	push	r23
 258:	8f 93       	push	r24
 25a:	9f 93       	push	r25
 25c:	af 93       	push	r26
 25e:	bf 93       	push	r27
 260:	ef 93       	push	r30
 262:	ff 93       	push	r31
    if(pcint2Function != 0)
 264:	e0 91 02 01 	lds	r30, 0x0102	; 0x800102 <pcint2Function>
 268:	f0 91 03 01 	lds	r31, 0x0103	; 0x800103 <pcint2Function+0x1>
 26c:	30 97       	sbiw	r30, 0x00	; 0
 26e:	09 f0       	breq	.+2      	; 0x272 <__vector_5+0x30>
        pcint2Function();
 270:	09 95       	icall
}
 272:	ff 91       	pop	r31
 274:	ef 91       	pop	r30
 276:	bf 91       	pop	r27
 278:	af 91       	pop	r26
 27a:	9f 91       	pop	r25
 27c:	8f 91       	pop	r24
 27e:	7f 91       	pop	r23
 280:	6f 91       	pop	r22
 282:	5f 91       	pop	r21
 284:	4f 91       	pop	r20
 286:	3f 91       	pop	r19
 288:	2f 91       	pop	r18
 28a:	0f 90       	pop	r0
 28c:	0f be       	out	0x3f, r0	; 63
 28e:	0f 90       	pop	r0
 290:	1f 90       	pop	r1
 292:	18 95       	reti

00000294 <__vector_24>:
	
	return 0;
}

ISR(TWI_vect)
{
 294:	1f 92       	push	r1
 296:	0f 92       	push	r0
 298:	0f b6       	in	r0, 0x3f	; 63
 29a:	0f 92       	push	r0
 29c:	11 24       	eor	r1, r1
 29e:	2f 93       	push	r18
 2a0:	3f 93       	push	r19
 2a2:	4f 93       	push	r20
 2a4:	5f 93       	push	r21
 2a6:	6f 93       	push	r22
 2a8:	7f 93       	push	r23
 2aa:	8f 93       	push	r24
 2ac:	9f 93       	push	r25
 2ae:	af 93       	push	r26
 2b0:	bf 93       	push	r27
 2b2:	ef 93       	push	r30
 2b4:	ff 93       	push	r31
    if (i2cInterruptFunction != 0)
 2b6:	e0 91 0c 01 	lds	r30, 0x010C	; 0x80010c <i2cInterruptFunction>
 2ba:	f0 91 0d 01 	lds	r31, 0x010D	; 0x80010d <i2cInterruptFunction+0x1>
 2be:	30 97       	sbiw	r30, 0x00	; 0
 2c0:	09 f0       	breq	.+2      	; 0x2c4 <__vector_24+0x30>
        i2cInterruptFunction();
 2c2:	09 95       	icall
 2c4:	ff 91       	pop	r31
 2c6:	ef 91       	pop	r30
 2c8:	bf 91       	pop	r27
 2ca:	af 91       	pop	r26
 2cc:	9f 91       	pop	r25
 2ce:	8f 91       	pop	r24
 2d0:	7f 91       	pop	r23
 2d2:	6f 91       	pop	r22
 2d4:	5f 91       	pop	r21
 2d6:	4f 91       	pop	r20
 2d8:	3f 91       	pop	r19
 2da:	2f 91       	pop	r18
 2dc:	0f 90       	pop	r0
 2de:	0f be       	out	0x3f, r0	; 63
 2e0:	0f 90       	pop	r0
 2e2:	1f 90       	pop	r1
 2e4:	18 95       	reti

000002e6 <__vector_17>:
	// Return Data Register
	return SPDR;
}

ISR(SPI_STC_vect)
{
 2e6:	1f 92       	push	r1
 2e8:	0f 92       	push	r0
 2ea:	0f b6       	in	r0, 0x3f	; 63
 2ec:	0f 92       	push	r0
 2ee:	11 24       	eor	r1, r1
 2f0:	2f 93       	push	r18
 2f2:	3f 93       	push	r19
 2f4:	4f 93       	push	r20
 2f6:	5f 93       	push	r21
 2f8:	6f 93       	push	r22
 2fa:	7f 93       	push	r23
 2fc:	8f 93       	push	r24
 2fe:	9f 93       	push	r25
 300:	af 93       	push	r26
 302:	bf 93       	push	r27
 304:	ef 93       	push	r30
 306:	ff 93       	push	r31
    if(spiInterruptFunction != 0)
 308:	e0 91 0e 01 	lds	r30, 0x010E	; 0x80010e <spiInterruptFunction>
 30c:	f0 91 0f 01 	lds	r31, 0x010F	; 0x80010f <spiInterruptFunction+0x1>
 310:	30 97       	sbiw	r30, 0x00	; 0
 312:	09 f0       	breq	.+2      	; 0x316 <__vector_17+0x30>
        spiInterruptFunction();
 314:	09 95       	icall
 316:	ff 91       	pop	r31
 318:	ef 91       	pop	r30
 31a:	bf 91       	pop	r27
 31c:	af 91       	pop	r26
 31e:	9f 91       	pop	r25
 320:	8f 91       	pop	r24
 322:	7f 91       	pop	r23
 324:	6f 91       	pop	r22
 326:	5f 91       	pop	r21
 328:	4f 91       	pop	r20
 32a:	3f 91       	pop	r19
 32c:	2f 91       	pop	r18
 32e:	0f 90       	pop	r0
 330:	0f be       	out	0x3f, r0	; 63
 332:	0f 90       	pop	r0
 334:	1f 90       	pop	r1
 336:	18 95       	reti

00000338 <__vector_16>:
	
}

//TIMER0 overflow interrupt
ISR(TIMER0_OVF_vect) 
{
 338:	1f 92       	push	r1
 33a:	0f 92       	push	r0
 33c:	0f b6       	in	r0, 0x3f	; 63
 33e:	0f 92       	push	r0
 340:	11 24       	eor	r1, r1
 342:	2f 93       	push	r18
 344:	3f 93       	push	r19
 346:	4f 93       	push	r20
 348:	5f 93       	push	r21
 34a:	6f 93       	push	r22
 34c:	7f 93       	push	r23
 34e:	8f 93       	push	r24
 350:	9f 93       	push	r25
 352:	af 93       	push	r26
 354:	bf 93       	push	r27
 356:	ef 93       	push	r30
 358:	ff 93       	push	r31
	if (timer0overflowInterruptFunction != 0)
 35a:	e0 91 22 01 	lds	r30, 0x0122	; 0x800122 <timer0overflowInterruptFunction>
 35e:	f0 91 23 01 	lds	r31, 0x0123	; 0x800123 <timer0overflowInterruptFunction+0x1>
 362:	30 97       	sbiw	r30, 0x00	; 0
 364:	09 f0       	breq	.+2      	; 0x368 <__vector_16+0x30>
		timer0overflowInterruptFunction();
 366:	09 95       	icall
}
 368:	ff 91       	pop	r31
 36a:	ef 91       	pop	r30
 36c:	bf 91       	pop	r27
 36e:	af 91       	pop	r26
 370:	9f 91       	pop	r25
 372:	8f 91       	pop	r24
 374:	7f 91       	pop	r23
 376:	6f 91       	pop	r22
 378:	5f 91       	pop	r21
 37a:	4f 91       	pop	r20
 37c:	3f 91       	pop	r19
 37e:	2f 91       	pop	r18
 380:	0f 90       	pop	r0
 382:	0f be       	out	0x3f, r0	; 63
 384:	0f 90       	pop	r0
 386:	1f 90       	pop	r1
 388:	18 95       	reti

0000038a <__vector_14>:


ISR(TIMER0_COMPA_vect)
{
 38a:	1f 92       	push	r1
 38c:	0f 92       	push	r0
 38e:	0f b6       	in	r0, 0x3f	; 63
 390:	0f 92       	push	r0
 392:	11 24       	eor	r1, r1
 394:	2f 93       	push	r18
 396:	3f 93       	push	r19
 398:	4f 93       	push	r20
 39a:	5f 93       	push	r21
 39c:	6f 93       	push	r22
 39e:	7f 93       	push	r23
 3a0:	8f 93       	push	r24
 3a2:	9f 93       	push	r25
 3a4:	af 93       	push	r26
 3a6:	bf 93       	push	r27
 3a8:	ef 93       	push	r30
 3aa:	ff 93       	push	r31
	if (timer0compAInterruptFunction != 0)
 3ac:	e0 91 1e 01 	lds	r30, 0x011E	; 0x80011e <timer0compAInterruptFunction>
 3b0:	f0 91 1f 01 	lds	r31, 0x011F	; 0x80011f <timer0compAInterruptFunction+0x1>
 3b4:	30 97       	sbiw	r30, 0x00	; 0
 3b6:	09 f0       	breq	.+2      	; 0x3ba <__vector_14+0x30>
		timer0compAInterruptFunction();
 3b8:	09 95       	icall
}
 3ba:	ff 91       	pop	r31
 3bc:	ef 91       	pop	r30
 3be:	bf 91       	pop	r27
 3c0:	af 91       	pop	r26
 3c2:	9f 91       	pop	r25
 3c4:	8f 91       	pop	r24
 3c6:	7f 91       	pop	r23
 3c8:	6f 91       	pop	r22
 3ca:	5f 91       	pop	r21
 3cc:	4f 91       	pop	r20
 3ce:	3f 91       	pop	r19
 3d0:	2f 91       	pop	r18
 3d2:	0f 90       	pop	r0
 3d4:	0f be       	out	0x3f, r0	; 63
 3d6:	0f 90       	pop	r0
 3d8:	1f 90       	pop	r1
 3da:	18 95       	reti

000003dc <__vector_15>:

ISR(TIMER0_COMPB_vect)
{
 3dc:	1f 92       	push	r1
 3de:	0f 92       	push	r0
 3e0:	0f b6       	in	r0, 0x3f	; 63
 3e2:	0f 92       	push	r0
 3e4:	11 24       	eor	r1, r1
 3e6:	2f 93       	push	r18
 3e8:	3f 93       	push	r19
 3ea:	4f 93       	push	r20
 3ec:	5f 93       	push	r21
 3ee:	6f 93       	push	r22
 3f0:	7f 93       	push	r23
 3f2:	8f 93       	push	r24
 3f4:	9f 93       	push	r25
 3f6:	af 93       	push	r26
 3f8:	bf 93       	push	r27
 3fa:	ef 93       	push	r30
 3fc:	ff 93       	push	r31
	if (timer0compBInterruptFunction != 0)
 3fe:	e0 91 20 01 	lds	r30, 0x0120	; 0x800120 <timer0compBInterruptFunction>
 402:	f0 91 21 01 	lds	r31, 0x0121	; 0x800121 <timer0compBInterruptFunction+0x1>
 406:	30 97       	sbiw	r30, 0x00	; 0
 408:	09 f0       	breq	.+2      	; 0x40c <__EEPROM_REGION_LENGTH__+0xc>
		timer0compBInterruptFunction();
 40a:	09 95       	icall
}
 40c:	ff 91       	pop	r31
 40e:	ef 91       	pop	r30
 410:	bf 91       	pop	r27
 412:	af 91       	pop	r26
 414:	9f 91       	pop	r25
 416:	8f 91       	pop	r24
 418:	7f 91       	pop	r23
 41a:	6f 91       	pop	r22
 41c:	5f 91       	pop	r21
 41e:	4f 91       	pop	r20
 420:	3f 91       	pop	r19
 422:	2f 91       	pop	r18
 424:	0f 90       	pop	r0
 426:	0f be       	out	0x3f, r0	; 63
 428:	0f 90       	pop	r0
 42a:	1f 90       	pop	r1
 42c:	18 95       	reti

0000042e <__vector_13>:


//TIMER1 overflow interrupt
ISR(TIMER1_OVF_vect) 
{
 42e:	1f 92       	push	r1
 430:	0f 92       	push	r0
 432:	0f b6       	in	r0, 0x3f	; 63
 434:	0f 92       	push	r0
 436:	11 24       	eor	r1, r1
 438:	2f 93       	push	r18
 43a:	3f 93       	push	r19
 43c:	4f 93       	push	r20
 43e:	5f 93       	push	r21
 440:	6f 93       	push	r22
 442:	7f 93       	push	r23
 444:	8f 93       	push	r24
 446:	9f 93       	push	r25
 448:	af 93       	push	r26
 44a:	bf 93       	push	r27
 44c:	ef 93       	push	r30
 44e:	ff 93       	push	r31
	if (timer1overflowInterruptFunction != 0)
 450:	e0 91 1c 01 	lds	r30, 0x011C	; 0x80011c <timer1overflowInterruptFunction>
 454:	f0 91 1d 01 	lds	r31, 0x011D	; 0x80011d <timer1overflowInterruptFunction+0x1>
 458:	30 97       	sbiw	r30, 0x00	; 0
 45a:	09 f0       	breq	.+2      	; 0x45e <__vector_13+0x30>
		timer1overflowInterruptFunction();
 45c:	09 95       	icall
}
 45e:	ff 91       	pop	r31
 460:	ef 91       	pop	r30
 462:	bf 91       	pop	r27
 464:	af 91       	pop	r26
 466:	9f 91       	pop	r25
 468:	8f 91       	pop	r24
 46a:	7f 91       	pop	r23
 46c:	6f 91       	pop	r22
 46e:	5f 91       	pop	r21
 470:	4f 91       	pop	r20
 472:	3f 91       	pop	r19
 474:	2f 91       	pop	r18
 476:	0f 90       	pop	r0
 478:	0f be       	out	0x3f, r0	; 63
 47a:	0f 90       	pop	r0
 47c:	1f 90       	pop	r1
 47e:	18 95       	reti

00000480 <__vector_11>:

ISR(TIMER1_COMPA_vect)
{
 480:	1f 92       	push	r1
 482:	0f 92       	push	r0
 484:	0f b6       	in	r0, 0x3f	; 63
 486:	0f 92       	push	r0
 488:	11 24       	eor	r1, r1
 48a:	2f 93       	push	r18
 48c:	3f 93       	push	r19
 48e:	4f 93       	push	r20
 490:	5f 93       	push	r21
 492:	6f 93       	push	r22
 494:	7f 93       	push	r23
 496:	8f 93       	push	r24
 498:	9f 93       	push	r25
 49a:	af 93       	push	r26
 49c:	bf 93       	push	r27
 49e:	ef 93       	push	r30
 4a0:	ff 93       	push	r31
	if (timer1compAInterruptFunction != 0)
 4a2:	e0 91 18 01 	lds	r30, 0x0118	; 0x800118 <timer1compAInterruptFunction>
 4a6:	f0 91 19 01 	lds	r31, 0x0119	; 0x800119 <timer1compAInterruptFunction+0x1>
 4aa:	30 97       	sbiw	r30, 0x00	; 0
 4ac:	09 f0       	breq	.+2      	; 0x4b0 <__vector_11+0x30>
		timer1compAInterruptFunction();
 4ae:	09 95       	icall
}
 4b0:	ff 91       	pop	r31
 4b2:	ef 91       	pop	r30
 4b4:	bf 91       	pop	r27
 4b6:	af 91       	pop	r26
 4b8:	9f 91       	pop	r25
 4ba:	8f 91       	pop	r24
 4bc:	7f 91       	pop	r23
 4be:	6f 91       	pop	r22
 4c0:	5f 91       	pop	r21
 4c2:	4f 91       	pop	r20
 4c4:	3f 91       	pop	r19
 4c6:	2f 91       	pop	r18
 4c8:	0f 90       	pop	r0
 4ca:	0f be       	out	0x3f, r0	; 63
 4cc:	0f 90       	pop	r0
 4ce:	1f 90       	pop	r1
 4d0:	18 95       	reti

000004d2 <__vector_12>:

ISR(TIMER1_COMPB_vect)
{
 4d2:	1f 92       	push	r1
 4d4:	0f 92       	push	r0
 4d6:	0f b6       	in	r0, 0x3f	; 63
 4d8:	0f 92       	push	r0
 4da:	11 24       	eor	r1, r1
 4dc:	2f 93       	push	r18
 4de:	3f 93       	push	r19
 4e0:	4f 93       	push	r20
 4e2:	5f 93       	push	r21
 4e4:	6f 93       	push	r22
 4e6:	7f 93       	push	r23
 4e8:	8f 93       	push	r24
 4ea:	9f 93       	push	r25
 4ec:	af 93       	push	r26
 4ee:	bf 93       	push	r27
 4f0:	ef 93       	push	r30
 4f2:	ff 93       	push	r31
	if (timer1compBInterruptFunction != 0)
 4f4:	e0 91 1a 01 	lds	r30, 0x011A	; 0x80011a <timer1compBInterruptFunction>
 4f8:	f0 91 1b 01 	lds	r31, 0x011B	; 0x80011b <timer1compBInterruptFunction+0x1>
 4fc:	30 97       	sbiw	r30, 0x00	; 0
 4fe:	09 f0       	breq	.+2      	; 0x502 <__vector_12+0x30>
		timer1compBInterruptFunction();
 500:	09 95       	icall
}
 502:	ff 91       	pop	r31
 504:	ef 91       	pop	r30
 506:	bf 91       	pop	r27
 508:	af 91       	pop	r26
 50a:	9f 91       	pop	r25
 50c:	8f 91       	pop	r24
 50e:	7f 91       	pop	r23
 510:	6f 91       	pop	r22
 512:	5f 91       	pop	r21
 514:	4f 91       	pop	r20
 516:	3f 91       	pop	r19
 518:	2f 91       	pop	r18
 51a:	0f 90       	pop	r0
 51c:	0f be       	out	0x3f, r0	; 63
 51e:	0f 90       	pop	r0
 520:	1f 90       	pop	r1
 522:	18 95       	reti

00000524 <__vector_10>:


ISR(TIMER1_CAPT_vect)
{
 524:	1f 92       	push	r1
 526:	0f 92       	push	r0
 528:	0f b6       	in	r0, 0x3f	; 63
 52a:	0f 92       	push	r0
 52c:	11 24       	eor	r1, r1
 52e:	2f 93       	push	r18
 530:	3f 93       	push	r19
 532:	4f 93       	push	r20
 534:	5f 93       	push	r21
 536:	6f 93       	push	r22
 538:	7f 93       	push	r23
 53a:	8f 93       	push	r24
 53c:	9f 93       	push	r25
 53e:	af 93       	push	r26
 540:	bf 93       	push	r27
 542:	ef 93       	push	r30
 544:	ff 93       	push	r31
	if (timer1captureEventInterruptFunction != 0)
 546:	e0 91 16 01 	lds	r30, 0x0116	; 0x800116 <timer1captureEventInterruptFunction>
 54a:	f0 91 17 01 	lds	r31, 0x0117	; 0x800117 <timer1captureEventInterruptFunction+0x1>
 54e:	30 97       	sbiw	r30, 0x00	; 0
 550:	09 f0       	breq	.+2      	; 0x554 <__vector_10+0x30>
		timer1captureEventInterruptFunction();
 552:	09 95       	icall
}
 554:	ff 91       	pop	r31
 556:	ef 91       	pop	r30
 558:	bf 91       	pop	r27
 55a:	af 91       	pop	r26
 55c:	9f 91       	pop	r25
 55e:	8f 91       	pop	r24
 560:	7f 91       	pop	r23
 562:	6f 91       	pop	r22
 564:	5f 91       	pop	r21
 566:	4f 91       	pop	r20
 568:	3f 91       	pop	r19
 56a:	2f 91       	pop	r18
 56c:	0f 90       	pop	r0
 56e:	0f be       	out	0x3f, r0	; 63
 570:	0f 90       	pop	r0
 572:	1f 90       	pop	r1
 574:	18 95       	reti

00000576 <__vector_9>:

ISR(TIMER2_OVF_vect)
{
 576:	1f 92       	push	r1
 578:	0f 92       	push	r0
 57a:	0f b6       	in	r0, 0x3f	; 63
 57c:	0f 92       	push	r0
 57e:	11 24       	eor	r1, r1
 580:	2f 93       	push	r18
 582:	3f 93       	push	r19
 584:	4f 93       	push	r20
 586:	5f 93       	push	r21
 588:	6f 93       	push	r22
 58a:	7f 93       	push	r23
 58c:	8f 93       	push	r24
 58e:	9f 93       	push	r25
 590:	af 93       	push	r26
 592:	bf 93       	push	r27
 594:	ef 93       	push	r30
 596:	ff 93       	push	r31
	if (timer2overflowInterruptFunction != 0)
 598:	e0 91 14 01 	lds	r30, 0x0114	; 0x800114 <timer2overflowInterruptFunction>
 59c:	f0 91 15 01 	lds	r31, 0x0115	; 0x800115 <timer2overflowInterruptFunction+0x1>
 5a0:	30 97       	sbiw	r30, 0x00	; 0
 5a2:	09 f0       	breq	.+2      	; 0x5a6 <__vector_9+0x30>
		timer2overflowInterruptFunction();
 5a4:	09 95       	icall
}
 5a6:	ff 91       	pop	r31
 5a8:	ef 91       	pop	r30
 5aa:	bf 91       	pop	r27
 5ac:	af 91       	pop	r26
 5ae:	9f 91       	pop	r25
 5b0:	8f 91       	pop	r24
 5b2:	7f 91       	pop	r23
 5b4:	6f 91       	pop	r22
 5b6:	5f 91       	pop	r21
 5b8:	4f 91       	pop	r20
 5ba:	3f 91       	pop	r19
 5bc:	2f 91       	pop	r18
 5be:	0f 90       	pop	r0
 5c0:	0f be       	out	0x3f, r0	; 63
 5c2:	0f 90       	pop	r0
 5c4:	1f 90       	pop	r1
 5c6:	18 95       	reti

000005c8 <__vector_7>:

ISR (TIMER2_COMPA_vect)
{
 5c8:	1f 92       	push	r1
 5ca:	0f 92       	push	r0
 5cc:	0f b6       	in	r0, 0x3f	; 63
 5ce:	0f 92       	push	r0
 5d0:	11 24       	eor	r1, r1
 5d2:	2f 93       	push	r18
 5d4:	3f 93       	push	r19
 5d6:	4f 93       	push	r20
 5d8:	5f 93       	push	r21
 5da:	6f 93       	push	r22
 5dc:	7f 93       	push	r23
 5de:	8f 93       	push	r24
 5e0:	9f 93       	push	r25
 5e2:	af 93       	push	r26
 5e4:	bf 93       	push	r27
 5e6:	ef 93       	push	r30
 5e8:	ff 93       	push	r31
	if (timer2compAInterruptFunction != 0)
 5ea:	e0 91 10 01 	lds	r30, 0x0110	; 0x800110 <timer2compAInterruptFunction>
 5ee:	f0 91 11 01 	lds	r31, 0x0111	; 0x800111 <timer2compAInterruptFunction+0x1>
 5f2:	30 97       	sbiw	r30, 0x00	; 0
 5f4:	09 f0       	breq	.+2      	; 0x5f8 <__vector_7+0x30>
		timer2compAInterruptFunction();
 5f6:	09 95       	icall
}
 5f8:	ff 91       	pop	r31
 5fa:	ef 91       	pop	r30
 5fc:	bf 91       	pop	r27
 5fe:	af 91       	pop	r26
 600:	9f 91       	pop	r25
 602:	8f 91       	pop	r24
 604:	7f 91       	pop	r23
 606:	6f 91       	pop	r22
 608:	5f 91       	pop	r21
 60a:	4f 91       	pop	r20
 60c:	3f 91       	pop	r19
 60e:	2f 91       	pop	r18
 610:	0f 90       	pop	r0
 612:	0f be       	out	0x3f, r0	; 63
 614:	0f 90       	pop	r0
 616:	1f 90       	pop	r1
 618:	18 95       	reti

0000061a <__vector_8>:

ISR (TIMER2_COMPB_vect)
{
 61a:	1f 92       	push	r1
 61c:	0f 92       	push	r0
 61e:	0f b6       	in	r0, 0x3f	; 63
 620:	0f 92       	push	r0
 622:	11 24       	eor	r1, r1
 624:	2f 93       	push	r18
 626:	3f 93       	push	r19
 628:	4f 93       	push	r20
 62a:	5f 93       	push	r21
 62c:	6f 93       	push	r22
 62e:	7f 93       	push	r23
 630:	8f 93       	push	r24
 632:	9f 93       	push	r25
 634:	af 93       	push	r26
 636:	bf 93       	push	r27
 638:	ef 93       	push	r30
 63a:	ff 93       	push	r31
	if (timer2compBInterruptFunction != 0)
 63c:	e0 91 12 01 	lds	r30, 0x0112	; 0x800112 <timer2compBInterruptFunction>
 640:	f0 91 13 01 	lds	r31, 0x0113	; 0x800113 <timer2compBInterruptFunction+0x1>
 644:	30 97       	sbiw	r30, 0x00	; 0
 646:	09 f0       	breq	.+2      	; 0x64a <__vector_8+0x30>
		timer2compBInterruptFunction();
 648:	09 95       	icall
}
 64a:	ff 91       	pop	r31
 64c:	ef 91       	pop	r30
 64e:	bf 91       	pop	r27
 650:	af 91       	pop	r26
 652:	9f 91       	pop	r25
 654:	8f 91       	pop	r24
 656:	7f 91       	pop	r23
 658:	6f 91       	pop	r22
 65a:	5f 91       	pop	r21
 65c:	4f 91       	pop	r20
 65e:	3f 91       	pop	r19
 660:	2f 91       	pop	r18
 662:	0f 90       	pop	r0
 664:	0f be       	out	0x3f, r0	; 63
 666:	0f 90       	pop	r0
 668:	1f 90       	pop	r1
 66a:	18 95       	reti

0000066c <__vector_18>:
   resh = (resh >> 1) & 0x01;
   return ((resh << 8) | resl);
}

ISR(USART_RX_vect)
{
 66c:	1f 92       	push	r1
 66e:	0f 92       	push	r0
 670:	0f b6       	in	r0, 0x3f	; 63
 672:	0f 92       	push	r0
 674:	11 24       	eor	r1, r1
 676:	2f 93       	push	r18
 678:	3f 93       	push	r19
 67a:	4f 93       	push	r20
 67c:	5f 93       	push	r21
 67e:	6f 93       	push	r22
 680:	7f 93       	push	r23
 682:	8f 93       	push	r24
 684:	9f 93       	push	r25
 686:	af 93       	push	r26
 688:	bf 93       	push	r27
 68a:	ef 93       	push	r30
 68c:	ff 93       	push	r31
    if(usartRxInterruptFunction != 0)
 68e:	e0 91 28 01 	lds	r30, 0x0128	; 0x800128 <usartRxInterruptFunction>
 692:	f0 91 29 01 	lds	r31, 0x0129	; 0x800129 <usartRxInterruptFunction+0x1>
 696:	30 97       	sbiw	r30, 0x00	; 0
 698:	09 f0       	breq	.+2      	; 0x69c <__vector_18+0x30>
        usartRxInterruptFunction();
 69a:	09 95       	icall
}
 69c:	ff 91       	pop	r31
 69e:	ef 91       	pop	r30
 6a0:	bf 91       	pop	r27
 6a2:	af 91       	pop	r26
 6a4:	9f 91       	pop	r25
 6a6:	8f 91       	pop	r24
 6a8:	7f 91       	pop	r23
 6aa:	6f 91       	pop	r22
 6ac:	5f 91       	pop	r21
 6ae:	4f 91       	pop	r20
 6b0:	3f 91       	pop	r19
 6b2:	2f 91       	pop	r18
 6b4:	0f 90       	pop	r0
 6b6:	0f be       	out	0x3f, r0	; 63
 6b8:	0f 90       	pop	r0
 6ba:	1f 90       	pop	r1
 6bc:	18 95       	reti

000006be <__vector_20>:

ISR(USART_TX_vect)
{
 6be:	1f 92       	push	r1
 6c0:	0f 92       	push	r0
 6c2:	0f b6       	in	r0, 0x3f	; 63
 6c4:	0f 92       	push	r0
 6c6:	11 24       	eor	r1, r1
 6c8:	2f 93       	push	r18
 6ca:	3f 93       	push	r19
 6cc:	4f 93       	push	r20
 6ce:	5f 93       	push	r21
 6d0:	6f 93       	push	r22
 6d2:	7f 93       	push	r23
 6d4:	8f 93       	push	r24
 6d6:	9f 93       	push	r25
 6d8:	af 93       	push	r26
 6da:	bf 93       	push	r27
 6dc:	ef 93       	push	r30
 6de:	ff 93       	push	r31
    if(usartTxInterruptFunction != 0)
 6e0:	e0 91 26 01 	lds	r30, 0x0126	; 0x800126 <usartTxInterruptFunction>
 6e4:	f0 91 27 01 	lds	r31, 0x0127	; 0x800127 <usartTxInterruptFunction+0x1>
 6e8:	30 97       	sbiw	r30, 0x00	; 0
 6ea:	09 f0       	breq	.+2      	; 0x6ee <__vector_20+0x30>
        usartTxInterruptFunction();
 6ec:	09 95       	icall
}
 6ee:	ff 91       	pop	r31
 6f0:	ef 91       	pop	r30
 6f2:	bf 91       	pop	r27
 6f4:	af 91       	pop	r26
 6f6:	9f 91       	pop	r25
 6f8:	8f 91       	pop	r24
 6fa:	7f 91       	pop	r23
 6fc:	6f 91       	pop	r22
 6fe:	5f 91       	pop	r21
 700:	4f 91       	pop	r20
 702:	3f 91       	pop	r19
 704:	2f 91       	pop	r18
 706:	0f 90       	pop	r0
 708:	0f be       	out	0x3f, r0	; 63
 70a:	0f 90       	pop	r0
 70c:	1f 90       	pop	r1
 70e:	18 95       	reti

00000710 <__vector_19>:

ISR(USART_UDRE_vect)
{
 710:	1f 92       	push	r1
 712:	0f 92       	push	r0
 714:	0f b6       	in	r0, 0x3f	; 63
 716:	0f 92       	push	r0
 718:	11 24       	eor	r1, r1
 71a:	2f 93       	push	r18
 71c:	3f 93       	push	r19
 71e:	4f 93       	push	r20
 720:	5f 93       	push	r21
 722:	6f 93       	push	r22
 724:	7f 93       	push	r23
 726:	8f 93       	push	r24
 728:	9f 93       	push	r25
 72a:	af 93       	push	r26
 72c:	bf 93       	push	r27
 72e:	ef 93       	push	r30
 730:	ff 93       	push	r31
    if(usartDataRegisterEmptyInterruptFunction != 0)
 732:	e0 91 24 01 	lds	r30, 0x0124	; 0x800124 <usartDataRegisterEmptyInterruptFunction>
 736:	f0 91 25 01 	lds	r31, 0x0125	; 0x800125 <usartDataRegisterEmptyInterruptFunction+0x1>
 73a:	30 97       	sbiw	r30, 0x00	; 0
 73c:	09 f0       	breq	.+2      	; 0x740 <__vector_19+0x30>
        usartDataRegisterEmptyInterruptFunction();
 73e:	09 95       	icall
}
 740:	ff 91       	pop	r31
 742:	ef 91       	pop	r30
 744:	bf 91       	pop	r27
 746:	af 91       	pop	r26
 748:	9f 91       	pop	r25
 74a:	8f 91       	pop	r24
 74c:	7f 91       	pop	r23
 74e:	6f 91       	pop	r22
 750:	5f 91       	pop	r21
 752:	4f 91       	pop	r20
 754:	3f 91       	pop	r19
 756:	2f 91       	pop	r18
 758:	0f 90       	pop	r0
 75a:	0f be       	out	0x3f, r0	; 63
 75c:	0f 90       	pop	r0
 75e:	1f 90       	pop	r1
 760:	18 95       	reti

00000762 <_exit>:
 762:	f8 94       	cli

00000764 <__stop_program>:
 764:	ff cf       	rjmp	.-2      	; 0x764 <__stop_program>
